; Function Attrs: mustprogress nounwind uwtable
define noundef i32 @casadi_register_rootfinder_kinsol(ptr nocapture noundef writeonly %0) #4 {
  store ptr @_ZN6casadi15KinsolInterface7creatorERKNSt7__cxx1112basic_stringIcSt11char_traitsIcESaIcEEERKNS_8FunctionE, ptr %0, align 8
  %2 = getelementptr inbounds i8, ptr %0, i64 8
  store ptr @.str.5, ptr %2, align 8
  %3 = tail call noundef ptr @_ZNKSt7__cxx1112basic_stringIcSt11char_traitsIcESaIcEE5c_strEv(ptr noundef nonnull align 8 dereferenceable(32) @_ZN6casadi15KinsolInterface8meta_docB5cxx11E) #19
  %4 = getelementptr inbounds i8, ptr %0, i64 16
  store ptr %3, ptr %4, align 8
  %5 = getelementptr inbounds i8, ptr %0, i64 24
  store i32 31, ptr %5, align 8
  %6 = getelementptr inbounds i8, ptr %0, i64 32
  store ptr @_ZN6casadi15KinsolInterface8options_E, ptr %6, align 8
  ret i32 0
}